target datalayout = "e-m:e-p270:32:32-p271:32:32-p272:64:64-i64:64-i128:128-f80:128-n8:16:32:64-S128"
target triple = "x86_64-pc-linux-gnu"

; Function Attrs: nounwind uwtable
define void @Emb_ManVecNormal(ptr noundef %0, i32 noundef %1) #0 {
  %3 = alloca ptr, align 8
  %4 = alloca i32, align 4
  %5 = alloca i32, align 4
  %6 = alloca double, align 8
  store ptr %0, ptr %3, align 8, !tbaa !107
  store i32 %1, ptr %4, align 4, !tbaa !12
  call void @llvm.lifetime.start.p0(i64 4, ptr %5) #12
  call void @llvm.lifetime.start.p0(i64 8, ptr %6) #12
  store double 0.000000e+00, ptr %6, align 8, !tbaa !124
  store i32 0, ptr %5, align 4, !tbaa !12
  br label %7

7:                                                ; preds = %26, %2
  %8 = load i32, ptr %5, align 4, !tbaa !12
  %9 = load i32, ptr %4, align 4, !tbaa !12
  %10 = icmp slt i32 %8, %9
  br i1 %10, label %11, label %29

11:                                               ; preds = %7
  %12 = load ptr, ptr %3, align 8, !tbaa !107
  %13 = load i32, ptr %5, align 4, !tbaa !12
  %14 = sext i32 %13 to i64
  %15 = getelementptr inbounds float, ptr %12, i64 %14
  %16 = load float, ptr %15, align 4, !tbaa !110
  %17 = load ptr, ptr %3, align 8, !tbaa !107
  %18 = load i32, ptr %5, align 4, !tbaa !12
  %19 = sext i32 %18 to i64
  %20 = getelementptr inbounds float, ptr %17, i64 %19
  %21 = load float, ptr %20, align 4, !tbaa !110
  %22 = fmul float %16, %21
  %23 = fpext float %22 to double
  %24 = load double, ptr %6, align 8, !tbaa !124
  %25 = fadd double %24, %23
  store double %25, ptr %6, align 8, !tbaa !124
  br label %26

26:                                               ; preds = %11
  %27 = load i32, ptr %5, align 4, !tbaa !12
  %28 = add nsw i32 %27, 1
  store i32 %28, ptr %5, align 4, !tbaa !12
  br label %7, !llvm.loop !133

29:                                               ; preds = %7
  %30 = load double, ptr %6, align 8, !tbaa !124
  %31 = call double @pow(double noundef %30, double noundef 5.000000e-01) #12, !tbaa !12
  store double %31, ptr %6, align 8, !tbaa !124
  store i32 0, ptr %5, align 4, !tbaa !12
  br label %32

32:                                               ; preds = %46, %29
  %33 = load i32, ptr %5, align 4, !tbaa !12
  %34 = load i32, ptr %4, align 4, !tbaa !12
  %35 = icmp slt i32 %33, %34
  br i1 %35, label %36, label %49

36:                                               ; preds = %32
  %37 = load double, ptr %6, align 8, !tbaa !124
  %38 = load ptr, ptr %3, align 8, !tbaa !107
  %39 = load i32, ptr %5, align 4, !tbaa !12
  %40 = sext i32 %39 to i64
  %41 = getelementptr inbounds float, ptr %38, i64 %40
  %42 = load float, ptr %41, align 4, !tbaa !110
  %43 = fpext float %42 to double
  %44 = fdiv double %43, %37
  %45 = fptrunc double %44 to float
  store float %45, ptr %41, align 4, !tbaa !110
  br label %46

46:                                               ; preds = %36
  %47 = load i32, ptr %5, align 4, !tbaa !12
  %48 = add nsw i32 %47, 1
  store i32 %48, ptr %5, align 4, !tbaa !12
  br label %32, !llvm.loop !134

49:                                               ; preds = %32
  call void @llvm.lifetime.end.p0(i64 8, ptr %6) #12
  call void @llvm.lifetime.end.p0(i64 4, ptr %5) #12
  ret void
}