; Function Attrs: nofree nounwind memory(write, argmem: readwrite) uwtable
define void @Emb_ManVecNormal(ptr noundef captures(none) %0, i32 noundef %1) local_unnamed_addr #15 {
  %3 = icmp sgt i32 %1, 0
  br i1 %3, label %.lr.ph.preheader, label %._crit_edge21

.lr.ph.preheader:                                 ; preds = %2
  %wide.trip.count = zext nneg i32 %1 to i64
  br label %.lr.ph

.lr.ph:                                           ; preds = %.lr.ph.preheader, %.lr.ph
  %indvars.iv = phi i64 [ 0, %.lr.ph.preheader ], [ %indvars.iv.next, %.lr.ph ]
  %.017 = phi double [ 0.000000e+00, %.lr.ph.preheader ], [ %8, %.lr.ph ]
  %4 = getelementptr inbounds nuw float, ptr %0, i64 %indvars.iv
  %5 = load float, ptr %4, align 4, !tbaa !106
  %6 = fmul float %5, %5
  %7 = fpext float %6 to double
  %8 = fadd double %.017, %7
  %indvars.iv.next = add nuw nsw i64 %indvars.iv, 1
  %exitcond.not = icmp eq i64 %indvars.iv.next, %wide.trip.count
  br i1 %exitcond.not, label %._crit_edge, label %.lr.ph, !llvm.loop !126

._crit_edge:                                      ; preds = %.lr.ph
  %9 = tail call double @pow(double noundef %8, double noundef 5.000000e-01) #27, !tbaa !9
  %wide.trip.count26 = zext nneg i32 %1 to i64
  br label %.lr.ph20

.lr.ph20:                                         ; preds = %._crit_edge, %.lr.ph20
  %indvars.iv23 = phi i64 [ 0, %._crit_edge ], [ %indvars.iv.next24, %.lr.ph20 ]
  %10 = getelementptr inbounds nuw float, ptr %0, i64 %indvars.iv23
  %11 = load float, ptr %10, align 4, !tbaa !106
  %12 = fpext float %11 to double
  %13 = fdiv double %12, %9
  %14 = fptrunc double %13 to float
  store float %14, ptr %10, align 4, !tbaa !106
  %indvars.iv.next24 = add nuw nsw i64 %indvars.iv23, 1
  %exitcond27.not = icmp eq i64 %indvars.iv.next24, %wide.trip.count26
  br i1 %exitcond27.not, label %._crit_edge21, label %.lr.ph20, !llvm.loop !127

._crit_edge21:                                    ; preds = %.lr.ph20, %2
  ret void
}